target datalayout = "e-m:e-p270:32:32-p271:32:32-p272:64:64-i64:64-i128:128-f80:128-n8:16:32:64-S128"
target triple = "x86_64-pc-linux-gnu"

%struct.ident_t = type { i32, i32, i32, i32, ptr }
%"class.std::vector.38" = type { %"struct.std::_Vector_base.39" }
%"struct.std::_Vector_base.39" = type { %"struct.std::_Vector_base<unsigned int, std::allocator<unsigned int>>::_Vector_impl" }
%"struct.std::_Vector_base<unsigned int, std::allocator<unsigned int>>::_Vector_impl" = type { %"struct.std::_Vector_base<unsigned int, std::allocator<unsigned int>>::_Vector_impl_data" }
%"struct.std::_Vector_base<unsigned int, std::allocator<unsigned int>>::_Vector_impl_data" = type { ptr, ptr, ptr }
%"class.LightGBM::FeatureGroup" = type { i32, %"class.std::vector.82", %"class.std::vector.38", %"class.std::unique_ptr.87", %"class.std::vector.95", i8, i8, i8, i32 }
%"class.std::vector.82" = type { %"struct.std::_Vector_base.83" }
%"struct.std::_Vector_base.83" = type { %"struct.std::_Vector_base<std::unique_ptr<LightGBM::BinMapper>, std::allocator<std::unique_ptr<LightGBM::BinMapper>>>::_Vector_impl" }
%"struct.std::_Vector_base<std::unique_ptr<LightGBM::BinMapper>, std::allocator<std::unique_ptr<LightGBM::BinMapper>>>::_Vector_impl" = type { %"struct.std::_Vector_base<std::unique_ptr<LightGBM::BinMapper>, std::allocator<std::unique_ptr<LightGBM::BinMapper>>>::_Vector_impl_data" }
%"struct.std::_Vector_base<std::unique_ptr<LightGBM::BinMapper>, std::allocator<std::unique_ptr<LightGBM::BinMapper>>>::_Vector_impl_data" = type { ptr, ptr, ptr }
%"class.std::unique_ptr.87" = type { %"struct.std::__uniq_ptr_data.88" }
%"struct.std::__uniq_ptr_data.88" = type { %"class.std::__uniq_ptr_impl.89" }
%"class.std::__uniq_ptr_impl.89" = type { %"class.std::tuple.90" }
%"class.std::tuple.90" = type { %"struct.std::_Tuple_impl.91" }
%"struct.std::_Tuple_impl.91" = type { %"struct.std::_Head_base.94" }
%"struct.std::_Head_base.94" = type { ptr }
%"class.std::vector.95" = type { %"struct.std::_Vector_base.96" }
%"struct.std::_Vector_base.96" = type { %"struct.std::_Vector_base<std::unique_ptr<LightGBM::Bin>, std::allocator<std::unique_ptr<LightGBM::Bin>>>::_Vector_impl" }
%"struct.std::_Vector_base<std::unique_ptr<LightGBM::Bin>, std::allocator<std::unique_ptr<LightGBM::Bin>>>::_Vector_impl" = type { %"struct.std::_Vector_base<std::unique_ptr<LightGBM::Bin>, std::allocator<std::unique_ptr<LightGBM::Bin>>>::_Vector_impl_data" }
%"struct.std::_Vector_base<std::unique_ptr<LightGBM::Bin>, std::allocator<std::unique_ptr<LightGBM::Bin>>>::_Vector_impl_data" = type { ptr, ptr, ptr }

@2 = private unnamed_addr constant %struct.ident_t { i32 0, i32 2, i32 0, i32 22, ptr @0 }, align 8
@_ZTISt9exception = external constant ptr

; Function Attrs: mustprogress nounwind uwtable
define linkonce_odr noundef nonnull align 8 dereferenceable(8) ptr @_ZNSt10_Head_baseILm0EPN8LightGBM3BinELb0EE7_M_headERKS3_(ptr noundef nonnull align 8 dereferenceable(8) %0) #6 comdat align 2 {
  %2 = alloca ptr, align 8
  store ptr %0, ptr %2, align 8, !tbaa !390
  %3 = load ptr, ptr %2, align 8, !tbaa !390
  %4 = getelementptr inbounds nuw %"struct.std::_Head_base.94", ptr %3, i32 0, i32 0
  ret ptr %4
}

; Function Attrs: mustprogress nounwind uwtable
define linkonce_odr noundef nonnull align 8 dereferenceable(8) ptr @_ZNSt11_Tuple_implILm0EJPN8LightGBM3BinESt14default_deleteIS1_EEE7_M_headERKS5_(ptr noundef nonnull align 8 dereferenceable(8) %0) #6 comdat align 2 {
  %2 = alloca ptr, align 8
  store ptr %0, ptr %2, align 8, !tbaa !388
  %3 = load ptr, ptr %2, align 8, !tbaa !388
  %4 = call noundef nonnull align 8 dereferenceable(8) ptr @_ZNSt10_Head_baseILm0EPN8LightGBM3BinELb0EE7_M_headERKS3_(ptr noundef nonnull align 8 dereferenceable(8) %3) #3
  ret ptr %4
}

; Function Attrs: mustprogress nounwind uwtable
define linkonce_odr noundef nonnull align 8 dereferenceable(8) ptr @_ZSt12__get_helperILm0EPN8LightGBM3BinEJSt14default_deleteIS1_EEERKT0_RKSt11_Tuple_implIXT_EJS5_DpT1_EE(ptr noundef nonnull align 8 dereferenceable(8) %0) #6 comdat {
  %2 = alloca ptr, align 8
  store ptr %0, ptr %2, align 8, !tbaa !388
  %3 = load ptr, ptr %2, align 8, !tbaa !388
  %4 = call noundef nonnull align 8 dereferenceable(8) ptr @_ZNSt11_Tuple_implILm0EJPN8LightGBM3BinESt14default_deleteIS1_EEE7_M_headERKS5_(ptr noundef nonnull align 8 dereferenceable(8) %3) #3
  ret ptr %4
}

; Function Attrs: mustprogress nounwind uwtable
define linkonce_odr noundef nonnull align 8 dereferenceable(8) ptr @_ZSt3getILm0EJPN8LightGBM3BinESt14default_deleteIS1_EEERKNSt13tuple_elementIXT_ESt5tupleIJDpT0_EEE4typeERKS9_(ptr noundef nonnull align 8 dereferenceable(8) %0) #6 comdat {
  %2 = alloca ptr, align 8
  store ptr %0, ptr %2, align 8, !tbaa !386
  %3 = load ptr, ptr %2, align 8, !tbaa !386
  %4 = call noundef nonnull align 8 dereferenceable(8) ptr @_ZSt12__get_helperILm0EPN8LightGBM3BinEJSt14default_deleteIS1_EEERKT0_RKSt11_Tuple_implIXT_EJS5_DpT1_EE(ptr noundef nonnull align 8 dereferenceable(8) %3) #3
  ret ptr %4
}

; Function Attrs: mustprogress nounwind uwtable
define linkonce_odr noundef ptr @_ZNKSt15__uniq_ptr_implIN8LightGBM3BinESt14default_deleteIS1_EE6_M_ptrEv(ptr noundef nonnull align 8 dereferenceable(8) %0) #6 comdat align 2 {
  %2 = alloca ptr, align 8
  store ptr %0, ptr %2, align 8, !tbaa !383
  %3 = load ptr, ptr %2, align 8
  %4 = getelementptr inbounds nuw %"class.std::__uniq_ptr_impl.89", ptr %3, i32 0, i32 0
  %5 = call noundef nonnull align 8 dereferenceable(8) ptr @_ZSt3getILm0EJPN8LightGBM3BinESt14default_deleteIS1_EEERKNSt13tuple_elementIXT_ESt5tupleIJDpT0_EEE4typeERKS9_(ptr noundef nonnull align 8 dereferenceable(8) %4) #3
  %6 = load ptr, ptr %5, align 8, !tbaa !385
  ret ptr %6
}

; Function Attrs: mustprogress nounwind uwtable
define linkonce_odr noundef ptr @_ZNKSt10unique_ptrIN8LightGBM3BinESt14default_deleteIS1_EE3getEv(ptr noundef nonnull align 8 dereferenceable(8) %0) #6 comdat align 2 {
  %2 = alloca ptr, align 8
  store ptr %0, ptr %2, align 8, !tbaa !334
  %3 = load ptr, ptr %2, align 8
  %4 = getelementptr inbounds nuw %"class.std::unique_ptr.87", ptr %3, i32 0, i32 0
  %5 = call noundef ptr @_ZNKSt15__uniq_ptr_implIN8LightGBM3BinESt14default_deleteIS1_EE6_M_ptrEv(ptr noundef nonnull align 8 dereferenceable(8) %4) #3
  ret ptr %5
}

; Function Attrs: mustprogress nounwind uwtable
define linkonce_odr noundef ptr @_ZNKSt10unique_ptrIN8LightGBM3BinESt14default_deleteIS1_EEptEv(ptr noundef nonnull align 8 dereferenceable(8) %0) #6 comdat align 2 {
  %2 = alloca ptr, align 8
  store ptr %0, ptr %2, align 8, !tbaa !334
  %3 = load ptr, ptr %2, align 8
  %4 = call noundef ptr @_ZNKSt10unique_ptrIN8LightGBM3BinESt14default_deleteIS1_EE3getEv(ptr noundef nonnull align 8 dereferenceable(8) %3) #3
  ret ptr %4
}

; Function Attrs: mustprogress nounwind uwtable
define linkonce_odr noundef nonnull align 8 dereferenceable(8) ptr @_ZNSt6vectorISt10unique_ptrIN8LightGBM3BinESt14default_deleteIS2_EESaIS5_EEixEm(ptr noundef nonnull align 8 dereferenceable(24) %0, i64 noundef %1) #6 comdat align 2 {
  %3 = alloca ptr, align 8
  %4 = alloca i64, align 8
  store ptr %0, ptr %3, align 8, !tbaa !535
  store i64 %1, ptr %4, align 8, !tbaa !92
  %5 = load ptr, ptr %3, align 8
  %6 = getelementptr inbounds nuw %"struct.std::_Vector_base.96", ptr %5, i32 0, i32 0
  %7 = getelementptr inbounds nuw %"struct.std::_Vector_base<std::unique_ptr<LightGBM::Bin>, std::allocator<std::unique_ptr<LightGBM::Bin>>>::_Vector_impl_data", ptr %6, i32 0, i32 0
  %8 = load ptr, ptr %7, align 8, !tbaa !537
  %9 = load i64, ptr %4, align 8, !tbaa !92
  %10 = getelementptr inbounds nuw %"class.std::unique_ptr.87", ptr %8, i64 %9
  ret ptr %10
}

; Function Attrs: alwaysinline norecurse nounwind uwtable
define internal void @_ZN8LightGBM12FeatureGroup10FinishLoadEv.omp_outlined(ptr noalias noundef %0, ptr noalias noundef %1, ptr noundef %2, ptr noundef nonnull align 8 dereferenceable(48) %3) #21 personality ptr @__gxx_personality_v0 {
  %5 = alloca ptr, align 8
  %6 = alloca ptr, align 8
  %7 = alloca ptr, align 8
  %8 = alloca ptr, align 8
  %9 = alloca i32, align 4
  %10 = alloca i32, align 4
  %11 = alloca i32, align 4
  %12 = alloca i32, align 4
  %13 = alloca i32, align 4
  %14 = alloca i32, align 4
  %15 = alloca i32, align 4
  %16 = alloca i32, align 4
  %17 = alloca i32, align 4
  %18 = alloca ptr, align 8
  %19 = alloca i32, align 4
  %20 = alloca ptr, align 8
  store ptr %0, ptr %5, align 8, !tbaa !162
  store ptr %1, ptr %6, align 8, !tbaa !162
  store ptr %2, ptr %7, align 8, !tbaa !358
  store ptr %3, ptr %8, align 8, !tbaa !324
  %21 = load ptr, ptr %7, align 8, !tbaa !358
  %22 = load ptr, ptr %8, align 8, !tbaa !324
  call void @llvm.lifetime.start.p0(i64 4, ptr %9) #3
  call void @llvm.lifetime.start.p0(i64 4, ptr %10) #3
  %23 = getelementptr inbounds nuw %"class.LightGBM::FeatureGroup", ptr %21, i32 0, i32 0
  %24 = load i32, ptr %23, align 8, !tbaa !130
  store i32 %24, ptr %10, align 4, !tbaa !15
  call void @llvm.lifetime.start.p0(i64 4, ptr %11) #3
  %25 = load i32, ptr %10, align 4, !tbaa !15
  %26 = sub nsw i32 %25, 0
  %27 = sdiv i32 %26, 1
  %28 = sub nsw i32 %27, 1
  store i32 %28, ptr %11, align 4, !tbaa !15
  call void @llvm.lifetime.start.p0(i64 4, ptr %12) #3
  store i32 0, ptr %12, align 4, !tbaa !15
  call void @llvm.lifetime.end.p0(i64 4, ptr %12) #3
  %29 = load i32, ptr %10, align 4, !tbaa !15
  %30 = icmp slt i32 0, %29
  br i1 %30, label %31, label %96

31:                                               ; preds = %4
  call void @llvm.lifetime.start.p0(i64 4, ptr %13) #3
  store i32 0, ptr %13, align 4, !tbaa !15
  call void @llvm.lifetime.start.p0(i64 4, ptr %14) #3
  %32 = load i32, ptr %11, align 4, !tbaa !15
  store i32 %32, ptr %14, align 4, !tbaa !15
  call void @llvm.lifetime.start.p0(i64 4, ptr %15) #3
  store i32 1, ptr %15, align 4, !tbaa !15
  call void @llvm.lifetime.start.p0(i64 4, ptr %16) #3
  store i32 0, ptr %16, align 4, !tbaa !15
  call void @llvm.lifetime.start.p0(i64 4, ptr %17) #3
  %33 = load i32, ptr %11, align 4, !tbaa !15
  %34 = load ptr, ptr %5, align 8
  %35 = load i32, ptr %34, align 4, !tbaa !15
  call void @__kmpc_dispatch_init_4(ptr @2, i32 %35, i32 1073741860, i32 0, i32 %33, i32 1, i32 1)
  br label %36

36:                                               ; preds = %92, %31
  %37 = load ptr, ptr %5, align 8
  %38 = load i32, ptr %37, align 4, !tbaa !15
  %39 = call i32 @__kmpc_dispatch_next_4(ptr @2, i32 %38, ptr %16, ptr %13, ptr %14, ptr %15)
  %40 = icmp ne i32 %39, 0
  br i1 %40, label %42, label %41

41:                                               ; preds = %36
  br label %93

42:                                               ; preds = %36
  %43 = load i32, ptr %13, align 4, !tbaa !15
  store i32 %43, ptr %9, align 4, !tbaa !15
  br label %44

44:                                               ; preds = %83, %42
  %45 = load i32, ptr %9, align 4, !tbaa !15, !llvm.access.group !1008
  %46 = load i32, ptr %14, align 4, !tbaa !15, !llvm.access.group !1008
  %47 = icmp sle i32 %45, %46
  br i1 %47, label %49, label %48

48:                                               ; preds = %44
  br label %91

49:                                               ; preds = %44
  %50 = load i32, ptr %9, align 4, !tbaa !15, !llvm.access.group !1008
  %51 = mul nsw i32 %50, 1
  %52 = add nsw i32 0, %51
  store i32 %52, ptr %17, align 4, !tbaa !15, !llvm.access.group !1008
  %53 = getelementptr inbounds nuw %"class.LightGBM::FeatureGroup", ptr %21, i32 0, i32 4
  %54 = load i32, ptr %17, align 4, !tbaa !15, !llvm.access.group !1008
  %55 = sext i32 %54 to i64
  %56 = call noundef nonnull align 8 dereferenceable(8) ptr @_ZNSt6vectorISt10unique_ptrIN8LightGBM3BinESt14default_deleteIS2_EESaIS5_EEixEm(ptr noundef nonnull align 8 dereferenceable(24) %53, i64 noundef %55) #3, !llvm.access.group !1008
  %57 = call noundef ptr @_ZNKSt10unique_ptrIN8LightGBM3BinESt14default_deleteIS1_EEptEv(ptr noundef nonnull align 8 dereferenceable(8) %56) #3, !llvm.access.group !1008
  %58 = load ptr, ptr %57, align 8, !tbaa !132, !llvm.access.group !1008
  %59 = getelementptr inbounds ptr, ptr %58, i64 32
  %60 = load ptr, ptr %59, align 8, !llvm.access.group !1008
  invoke void %60(ptr noundef nonnull align 8 dereferenceable(8) %57)
          to label %61 unwind label %62, !llvm.access.group !1008

61:                                               ; preds = %49
  br label %81

62:                                               ; preds = %49
  %63 = landingpad { ptr, i32 }
          catch ptr @_ZTISt9exception
          catch ptr null
  %64 = extractvalue { ptr, i32 } %63, 0
  store ptr %64, ptr %18, align 8, !llvm.access.group !1008
  %65 = extractvalue { ptr, i32 } %63, 1
  store i32 %65, ptr %19, align 4, !llvm.access.group !1008
  br label %66

66:                                               ; preds = %62
  %67 = load i32, ptr %19, align 4, !llvm.access.group !1008
  %68 = call i32 @llvm.eh.typeid.for.p0(ptr @_ZTISt9exception) #3
  %69 = icmp eq i32 %67, %68
  br i1 %69, label %70, label %86

70:                                               ; preds = %66
  call void @llvm.lifetime.start.p0(i64 8, ptr %20) #3, !llvm.access.group !1008
  %71 = load ptr, ptr %18, align 8, !llvm.access.group !1008
  %72 = call ptr @__cxa_begin_catch(ptr %71) #3, !llvm.access.group !1008
  store ptr %72, ptr %20, align 8, !llvm.access.group !1008
  %73 = load ptr, ptr %20, align 8, !tbaa !329, !llvm.access.group !1008
  %74 = load ptr, ptr %73, align 8, !tbaa !132, !llvm.access.group !1008
  %75 = getelementptr inbounds ptr, ptr %74, i64 2
  %76 = load ptr, ptr %75, align 8, !llvm.access.group !1008
  %77 = call noundef ptr %76(ptr noundef nonnull align 8 dereferenceable(8) %73) #3, !llvm.access.group !1008
  invoke void (ptr, ...) @_ZN8LightGBM3Log7WarningEPKcz(ptr noundef %77)
          to label %78 unwind label %97, !llvm.access.group !1008

78:                                               ; preds = %70
  invoke void @_ZN21ThreadExceptionHelper16CaptureExceptionEv(ptr noundef nonnull align 8 dereferenceable(48) %22)
          to label %79 unwind label %97, !llvm.access.group !1008

79:                                               ; preds = %78
  invoke void @__cxa_end_catch()
          to label %80 unwind label %97, !llvm.access.group !1008

80:                                               ; preds = %79
  call void @llvm.lifetime.end.p0(i64 8, ptr %20) #3, !llvm.access.group !1008
  br label %81

81:                                               ; preds = %80, %90, %61
  br label %82

82:                                               ; preds = %81
  br label %83

83:                                               ; preds = %82
  %84 = load i32, ptr %9, align 4, !tbaa !15, !llvm.access.group !1008
  %85 = add nsw i32 %84, 1
  store i32 %85, ptr %9, align 4, !tbaa !15, !llvm.access.group !1008
  br label %44, !llvm.loop !1009

86:                                               ; preds = %66
  %87 = load ptr, ptr %18, align 8, !llvm.access.group !1008
  %88 = call ptr @__cxa_begin_catch(ptr %87) #3, !llvm.access.group !1008
  invoke void @_ZN21ThreadExceptionHelper16CaptureExceptionEv(ptr noundef nonnull align 8 dereferenceable(48) %22)
          to label %89 unwind label %97, !llvm.access.group !1008

89:                                               ; preds = %86
  invoke void @__cxa_end_catch()
          to label %90 unwind label %97, !llvm.access.group !1008

90:                                               ; preds = %89
  br label %81

91:                                               ; preds = %48
  br label %92

92:                                               ; preds = %91
  br label %36

93:                                               ; preds = %41
  %94 = load ptr, ptr %5, align 8
  %95 = load i32, ptr %94, align 4, !tbaa !15
  call void @__kmpc_dispatch_deinit(ptr @2, i32 %95)
  call void @llvm.lifetime.end.p0(i64 4, ptr %17) #3
  call void @llvm.lifetime.end.p0(i64 4, ptr %16) #3
  call void @llvm.lifetime.end.p0(i64 4, ptr %15) #3
  call void @llvm.lifetime.end.p0(i64 4, ptr %14) #3
  call void @llvm.lifetime.end.p0(i64 4, ptr %13) #3
  br label %96

96:                                               ; preds = %93, %4
  call void @llvm.lifetime.end.p0(i64 4, ptr %11) #3
  call void @llvm.lifetime.end.p0(i64 4, ptr %10) #3
  call void @llvm.lifetime.end.p0(i64 4, ptr %9) #3
  ret void

97:                                               ; preds = %79, %78, %70, %89, %86
  %98 = landingpad { ptr, i32 }
          catch ptr null
  %99 = extractvalue { ptr, i32 } %98, 0
  call void @__clang_call_terminate(ptr %99) #30, !llvm.access.group !1008
  unreachable
}