; Function Attrs: alwaysinline norecurse nounwind uwtable
define internal void @_ZN8LightGBM12FeatureGroup10FinishLoadEv.omp_outlined(ptr noalias noundef readonly captures(none) %0, ptr noalias readnone captures(none) %1, ptr noundef readonly captures(none) %2, ptr noundef nonnull align 8 dereferenceable(48) %3) #21 personality ptr @__gxx_personality_v0 {
  %5 = alloca i32, align 4
  %6 = alloca i32, align 4
  %7 = alloca i32, align 4
  %8 = alloca i32, align 4
  %9 = load i32, ptr %2, align 8, !tbaa !129
  %10 = icmp sgt i32 %9, 0
  br i1 %10, label %11, label %42

11:                                               ; preds = %4
  %12 = add nsw i32 %9, -1
  call void @llvm.lifetime.start.p0(i64 4, ptr nonnull %5) #20
  store i32 0, ptr %5, align 4, !tbaa !104
  call void @llvm.lifetime.start.p0(i64 4, ptr nonnull %6) #20
  store i32 %12, ptr %6, align 4, !tbaa !104
  call void @llvm.lifetime.start.p0(i64 4, ptr nonnull %7) #20
  store i32 1, ptr %7, align 4, !tbaa !104
  call void @llvm.lifetime.start.p0(i64 4, ptr nonnull %8) #20
  store i32 0, ptr %8, align 4, !tbaa !104
  %13 = load i32, ptr %0, align 4, !tbaa !104
  tail call void @__kmpc_dispatch_init_4(ptr nonnull @2, i32 %13, i32 1073741860, i32 0, i32 %12, i32 1, i32 1)
  %14 = call i32 @__kmpc_dispatch_next_4(ptr nonnull @2, i32 %13, ptr nonnull %8, ptr nonnull %5, ptr nonnull %6, ptr nonnull %7)
  %.not19 = icmp eq i32 %14, 0
  br i1 %.not19, label %._crit_edge, label %.lr.ph20

.lr.ph20:                                         ; preds = %11
  %15 = getelementptr inbounds nuw i8, ptr %2, i64 64
  br label %17

.loopexit:                                        ; preds = %39, %17
  %16 = call i32 @__kmpc_dispatch_next_4(ptr nonnull @2, i32 %13, ptr nonnull %8, ptr nonnull %5, ptr nonnull %6, ptr nonnull %7)
  %.not = icmp eq i32 %16, 0
  br i1 %.not, label %._crit_edge, label %17

17:                                               ; preds = %.lr.ph20, %.loopexit
  %18 = load i32, ptr %5, align 4, !tbaa !104
  %19 = load i32, ptr %6, align 4, !tbaa !104, !llvm.access.group !507
  %.not1617 = icmp sgt i32 %18, %19
  br i1 %.not1617, label %.loopexit, label %.lr.ph.preheader

.lr.ph.preheader:                                 ; preds = %17
  %20 = sext i32 %18 to i64
  br label %.lr.ph

.lr.ph:                                           ; preds = %.lr.ph.preheader, %39
  %indvars.iv = phi i64 [ %20, %.lr.ph.preheader ], [ %indvars.iv.next, %39 ]
  %21 = load ptr, ptr %15, align 8, !tbaa !271, !llvm.access.group !507
  %22 = getelementptr inbounds nuw %"class.std::unique_ptr.87", ptr %21, i64 %indvars.iv
  %23 = load ptr, ptr %22, align 8, !tbaa !167, !llvm.access.group !507
  %24 = load ptr, ptr %23, align 8, !tbaa !99, !llvm.access.group !507
  %25 = getelementptr inbounds nuw i8, ptr %24, i64 256
  %26 = load ptr, ptr %25, align 8, !llvm.access.group !507
  invoke void %26(ptr noundef nonnull align 8 dereferenceable(8) %23)
          to label %39 unwind label %27, !llvm.access.group !507

27:                                               ; preds = %.lr.ph
  %28 = landingpad { ptr, i32 }
          catch ptr @_ZTISt9exception
          catch ptr null
  %29 = extractvalue { ptr, i32 } %28, 0
  %30 = extractvalue { ptr, i32 } %28, 1
  %31 = call i32 @llvm.eh.typeid.for.p0(ptr nonnull @_ZTISt9exception) #20
  %32 = icmp eq i32 %30, %31
  %33 = call ptr @__cxa_begin_catch(ptr %29) #20, !llvm.access.group !507
  br i1 %32, label %34, label %.invoke22

34:                                               ; preds = %27
  %35 = load ptr, ptr %33, align 8, !tbaa !99, !llvm.access.group !507
  %36 = getelementptr inbounds nuw i8, ptr %35, i64 16
  %37 = load ptr, ptr %36, align 8, !llvm.access.group !507
  %38 = call noundef ptr %37(ptr noundef nonnull align 8 dereferenceable(8) %33) #20, !llvm.access.group !507
  invoke void (ptr, ...) @_ZN8LightGBM3Log7WarningEPKcz(ptr noundef %38)
          to label %.invoke22 unwind label %43, !llvm.access.group !507

39:                                               ; preds = %.invoke, %.lr.ph
  %indvars.iv.next = add nsw i64 %indvars.iv, 1
  %40 = load i32, ptr %6, align 4, !tbaa !104, !llvm.access.group !507
  %41 = sext i32 %40 to i64
  %.not16.not = icmp slt i64 %indvars.iv, %41
  br i1 %.not16.not, label %.lr.ph, label %.loopexit, !llvm.loop !508

.invoke22:                                        ; preds = %27, %34
  invoke void @_ZN21ThreadExceptionHelper16CaptureExceptionEv(ptr noundef nonnull align 8 dereferenceable(48) %3)
          to label %.invoke unwind label %43, !llvm.access.group !507

.invoke:                                          ; preds = %.invoke22
  invoke void @__cxa_end_catch()
          to label %39 unwind label %43, !llvm.access.group !507

._crit_edge:                                      ; preds = %.loopexit, %11
  call void @__kmpc_dispatch_deinit(ptr nonnull @2, i32 %13)
  call void @llvm.lifetime.end.p0(i64 4, ptr nonnull %8) #20
  call void @llvm.lifetime.end.p0(i64 4, ptr nonnull %7) #20
  call void @llvm.lifetime.end.p0(i64 4, ptr nonnull %6) #20
  call void @llvm.lifetime.end.p0(i64 4, ptr nonnull %5) #20
  br label %42

42:                                               ; preds = %._crit_edge, %4
  ret void

43:                                               ; preds = %.invoke22, %.invoke, %34
  %44 = landingpad { ptr, i32 }
          catch ptr null
  %45 = extractvalue { ptr, i32 } %44, 0
  call void @__clang_call_terminate(ptr %45) #41, !llvm.access.group !507
  unreachable
}